; ModuleID = '36/1140.c'
source_filename = "36/1140.c"
target datalayout = "e-m:e-p270:32:32-p271:32:32-p272:64:64-i64:64-f80:128-n8:16:32:64-S128"
target triple = "x86_64-pc-linux-gnu"

@.str = private unnamed_addr constant [6 x i8] c"%s %s\00", align 1
@.str.1 = private unnamed_addr constant [5 x i8] c"YES\0A\00", align 1
@.str.2 = private unnamed_addr constant [4 x i8] c"NO\0A\00", align 1

; Function Attrs: noinline nounwind uwtable
define dso_local void @paixu(i8* %0) #0 {
  %2 = alloca i8*, align 8
  %3 = alloca i32, align 4
  %4 = alloca i32, align 4
  %5 = alloca i8, align 1
  store i8* %0, i8** %2, align 8
  store i32 1, i32* %4, align 4
  br label %6

6:                                                ; preds = %64, %1
  %7 = load i32, i32* %4, align 4
  %8 = sext i32 %7 to i64
  %9 = load i8*, i8** %2, align 8
  %10 = call i64 @strlen(i8* %9) #3
  %11 = icmp ult i64 %8, %10
  br i1 %11, label %12, label %67

12:                                               ; preds = %6
  store i32 0, i32* %3, align 4
  br label %13

13:                                               ; preds = %60, %12
  %14 = load i32, i32* %3, align 4
  %15 = sext i32 %14 to i64
  %16 = load i8*, i8** %2, align 8
  %17 = call i64 @strlen(i8* %16) #3
  %18 = load i32, i32* %4, align 4
  %19 = sext i32 %18 to i64
  %20 = sub i64 %17, %19
  %21 = icmp ult i64 %15, %20
  br i1 %21, label %22, label %63

22:                                               ; preds = %13
  %23 = load i8*, i8** %2, align 8
  %24 = load i32, i32* %3, align 4
  %25 = sext i32 %24 to i64
  %26 = getelementptr inbounds i8, i8* %23, i64 %25
  %27 = load i8, i8* %26, align 1
  %28 = sext i8 %27 to i32
  %29 = load i8*, i8** %2, align 8
  %30 = load i32, i32* %3, align 4
  %31 = add nsw i32 %30, 1
  %32 = sext i32 %31 to i64
  %33 = getelementptr inbounds i8, i8* %29, i64 %32
  %34 = load i8, i8* %33, align 1
  %35 = sext i8 %34 to i32
  %36 = icmp sgt i32 %28, %35
  br i1 %36, label %37, label %59

37:                                               ; preds = %22
  %38 = load i8*, i8** %2, align 8
  %39 = load i32, i32* %3, align 4
  %40 = add nsw i32 %39, 1
  %41 = sext i32 %40 to i64
  %42 = getelementptr inbounds i8, i8* %38, i64 %41
  %43 = load i8, i8* %42, align 1
  store i8 %43, i8* %5, align 1
  %44 = load i8*, i8** %2, align 8
  %45 = load i32, i32* %3, align 4
  %46 = sext i32 %45 to i64
  %47 = getelementptr inbounds i8, i8* %44, i64 %46
  %48 = load i8, i8* %47, align 1
  %49 = load i8*, i8** %2, align 8
  %50 = load i32, i32* %3, align 4
  %51 = add nsw i32 %50, 1
  %52 = sext i32 %51 to i64
  %53 = getelementptr inbounds i8, i8* %49, i64 %52
  store i8 %48, i8* %53, align 1
  %54 = load i8, i8* %5, align 1
  %55 = load i8*, i8** %2, align 8
  %56 = load i32, i32* %3, align 4
  %57 = sext i32 %56 to i64
  %58 = getelementptr inbounds i8, i8* %55, i64 %57
  store i8 %54, i8* %58, align 1
  br label %59

59:                                               ; preds = %37, %22
  br label %60

60:                                               ; preds = %59
  %61 = load i32, i32* %3, align 4
  %62 = add nsw i32 %61, 1
  store i32 %62, i32* %3, align 4
  br label %13

63:                                               ; preds = %13
  br label %64

64:                                               ; preds = %63
  %65 = load i32, i32* %4, align 4
  %66 = add nsw i32 %65, 1
  store i32 %66, i32* %4, align 4
  br label %6

67:                                               ; preds = %6
  ret void
}

; Function Attrs: nounwind readonly
declare dso_local i64 @strlen(i8*) #1

; Function Attrs: noinline nounwind uwtable
define dso_local i32 @main() #0 {
  %1 = alloca i32, align 4
  %2 = alloca [100 x i8], align 16
  %3 = alloca [100 x i8], align 16
  %4 = alloca [50 x i8], align 16
  store i32 0, i32* %1, align 4
  %5 = getelementptr inbounds [100 x i8], [100 x i8]* %2, i64 0, i64 0
  %6 = getelementptr inbounds [100 x i8], [100 x i8]* %3, i64 0, i64 0
  %7 = call i32 (i8*, ...) @__isoc99_scanf(i8* getelementptr inbounds ([6 x i8], [6 x i8]* @.str, i64 0, i64 0), i8* %5, i8* %6)
  %8 = getelementptr inbounds [100 x i8], [100 x i8]* %2, i64 0, i64 0
  %9 = call i64 @strlen(i8* %8) #3
  %10 = getelementptr inbounds [100 x i8], [100 x i8]* %3, i64 0, i64 0
  %11 = call i64 @strlen(i8* %10) #3
  %12 = icmp eq i64 %9, %11
  br i1 %12, label %13, label %25

13:                                               ; preds = %0
  %14 = getelementptr inbounds [100 x i8], [100 x i8]* %2, i64 0, i64 0
  call void @paixu(i8* %14)
  %15 = getelementptr inbounds [100 x i8], [100 x i8]* %3, i64 0, i64 0
  call void @paixu(i8* %15)
  %16 = getelementptr inbounds [100 x i8], [100 x i8]* %2, i64 0, i64 0
  %17 = getelementptr inbounds [100 x i8], [100 x i8]* %3, i64 0, i64 0
  %18 = call i32 @strcmp(i8* %16, i8* %17) #3
  %19 = icmp eq i32 %18, 0
  br i1 %19, label %20, label %22

20:                                               ; preds = %13
  %21 = call i32 (i8*, ...) @printf(i8* getelementptr inbounds ([5 x i8], [5 x i8]* @.str.1, i64 0, i64 0))
  br label %24

22:                                               ; preds = %13
  %23 = call i32 (i8*, ...) @printf(i8* getelementptr inbounds ([4 x i8], [4 x i8]* @.str.2, i64 0, i64 0))
  br label %24

24:                                               ; preds = %22, %20
  br label %27

25:                                               ; preds = %0
  %26 = call i32 (i8*, ...) @printf(i8* getelementptr inbounds ([4 x i8], [4 x i8]* @.str.2, i64 0, i64 0))
  br label %27

27:                                               ; preds = %25, %24
  ret i32 0
}

declare dso_local i32 @__isoc99_scanf(i8*, ...) #2

; Function Attrs: nounwind readonly
declare dso_local i32 @strcmp(i8*, i8*) #1

declare dso_local i32 @printf(i8*, ...) #2


!llvm.module.flags = !{!0}
!llvm.ident = !{!1}

!0 = !{i32 1, !"wchar_size", i32 4}
!1 = !{!"clang version 10.0.0-4ubuntu1 "}
